target datalayout = "e-m:e-p270:32:32-p271:32:32-p272:64:64-i64:64-i128:128-f80:128-n8:16:32:64-S128"
target triple = "x86_64-pc-linux-gnu"

%struct.Inta_Man_t_ = type { ptr, ptr, i32, i32, i32, i32, i32, i32, i32, ptr, ptr, ptr, ptr, ptr, ptr, ptr, ptr, i32, i32, ptr, ptr, ptr, i64, i64, i64 }
%struct.Sto_Man_t_ = type { i32, i32, i32, i32, ptr, ptr, ptr, i32, i32, ptr }
%struct.Sto_Cls_t_ = type { ptr, ptr, ptr, i32, i32, [0 x i32] }
%struct.Aig_Man_t_ = type { ptr, ptr, ptr, ptr, ptr, ptr, ptr, %struct.Aig_Obj_t_, i32, i32, i32, i32, i32, i32, [7 x i32], i32, ptr, i32, ptr, i32, ptr, i32, i32, i32, ptr, i32, i32, i32, i32, i32, ptr, ptr, i32, ptr, ptr, i32, ptr, ptr, i32, i32, i32, ptr, ptr, ptr, ptr, ptr, ptr, ptr, ptr, ptr, ptr, ptr, ptr, ptr, ptr, i32, ptr, ptr, ptr, ptr, i32, i64, i64, i64, ptr, ptr }
%struct.Aig_Obj_t_ = type { %union.anon, ptr, ptr, i64, i32, i32, %union.anon.0 }
%union.anon = type { ptr }
%union.anon.0 = type { ptr }

; Function Attrs: inlinehint nounwind uwtable
define internal ptr @Aig_Not(ptr noundef %0) #4 {
  %2 = alloca ptr, align 8
  store ptr %0, ptr %2, align 8, !tbaa !89
  %3 = load ptr, ptr %2, align 8, !tbaa !89
  %4 = ptrtoint ptr %3 to i64
  %5 = xor i64 %4, 1
  %6 = inttoptr i64 %5 to ptr
  ret ptr %6
}

; Function Attrs: inlinehint nounwind uwtable
define internal ptr @Aig_ManConst0(ptr noundef %0) #4 {
  %2 = alloca ptr, align 8
  store ptr %0, ptr %2, align 8, !tbaa !108
  %3 = load ptr, ptr %2, align 8, !tbaa !108
  %4 = getelementptr inbounds nuw %struct.Aig_Man_t_, ptr %3, i32 0, i32 6
  %5 = load ptr, ptr %4, align 8, !tbaa !117
  %6 = call ptr @Aig_Not(ptr noundef %5)
  ret ptr %6
}

; Function Attrs: inlinehint nounwind uwtable
define internal ptr @Aig_ManConst1(ptr noundef %0) #4 {
  %2 = alloca ptr, align 8
  store ptr %0, ptr %2, align 8, !tbaa !108
  %3 = load ptr, ptr %2, align 8, !tbaa !108
  %4 = getelementptr inbounds nuw %struct.Aig_Man_t_, ptr %3, i32 0, i32 6
  %5 = load ptr, ptr %4, align 8, !tbaa !117
  ret ptr %5
}

; Function Attrs: inlinehint nounwind uwtable
define internal void @Inta_ManAigOrVar(ptr noundef %0, ptr noundef %1, i32 noundef %2) #4 {
  %4 = alloca ptr, align 8
  %5 = alloca ptr, align 8
  %6 = alloca i32, align 4
  store ptr %0, ptr %4, align 8, !tbaa !3
  store ptr %1, ptr %5, align 8, !tbaa !88
  store i32 %2, ptr %6, align 4, !tbaa !22
  %7 = load ptr, ptr %4, align 8, !tbaa !3
  %8 = getelementptr inbounds nuw %struct.Inta_Man_t_, ptr %7, i32 0, i32 14
  %9 = load ptr, ptr %8, align 8, !tbaa !91
  %10 = load ptr, ptr %5, align 8, !tbaa !88
  %11 = load ptr, ptr %10, align 8, !tbaa !89
  %12 = load ptr, ptr %4, align 8, !tbaa !3
  %13 = getelementptr inbounds nuw %struct.Inta_Man_t_, ptr %12, i32 0, i32 14
  %14 = load ptr, ptr %13, align 8, !tbaa !91
  %15 = load i32, ptr %6, align 4, !tbaa !22
  %16 = call ptr @Aig_IthVar(ptr noundef %14, i32 noundef %15)
  %17 = call ptr @Aig_Or(ptr noundef %9, ptr noundef %11, ptr noundef %16)
  %18 = load ptr, ptr %5, align 8, !tbaa !88
  store ptr %17, ptr %18, align 8, !tbaa !89
  ret void
}

; Function Attrs: inlinehint nounwind uwtable
define internal void @Inta_ManAigOrNotVar(ptr noundef %0, ptr noundef %1, i32 noundef %2) #4 {
  %4 = alloca ptr, align 8
  %5 = alloca ptr, align 8
  %6 = alloca i32, align 4
  store ptr %0, ptr %4, align 8, !tbaa !3
  store ptr %1, ptr %5, align 8, !tbaa !88
  store i32 %2, ptr %6, align 4, !tbaa !22
  %7 = load ptr, ptr %4, align 8, !tbaa !3
  %8 = getelementptr inbounds nuw %struct.Inta_Man_t_, ptr %7, i32 0, i32 14
  %9 = load ptr, ptr %8, align 8, !tbaa !91
  %10 = load ptr, ptr %5, align 8, !tbaa !88
  %11 = load ptr, ptr %10, align 8, !tbaa !89
  %12 = load ptr, ptr %4, align 8, !tbaa !3
  %13 = getelementptr inbounds nuw %struct.Inta_Man_t_, ptr %12, i32 0, i32 14
  %14 = load ptr, ptr %13, align 8, !tbaa !91
  %15 = load i32, ptr %6, align 4, !tbaa !22
  %16 = call ptr @Aig_IthVar(ptr noundef %14, i32 noundef %15)
  %17 = call ptr @Aig_Not(ptr noundef %16)
  %18 = call ptr @Aig_Or(ptr noundef %9, ptr noundef %11, ptr noundef %17)
  %19 = load ptr, ptr %5, align 8, !tbaa !88
  store ptr %18, ptr %19, align 8, !tbaa !89
  ret void
}

; Function Attrs: inlinehint nounwind uwtable
define internal i32 @lit_sign(i32 noundef %0) #4 {
  %2 = alloca i32, align 4
  store i32 %0, ptr %2, align 4, !tbaa !22
  %3 = load i32, ptr %2, align 4, !tbaa !22
  %4 = and i32 %3, 1
  ret i32 %4
}

; Function Attrs: inlinehint nounwind uwtable
define internal i32 @lit_var(i32 noundef %0) #4 {
  %2 = alloca i32, align 4
  store i32 %0, ptr %2, align 4, !tbaa !22
  %3 = load i32, ptr %2, align 4, !tbaa !22
  %4 = ashr i32 %3, 1
  ret i32 %4
}

; Function Attrs: inlinehint nounwind uwtable
define internal void @Inta_ManAigClear(ptr noundef %0, ptr noundef %1) #4 {
  %3 = alloca ptr, align 8
  %4 = alloca ptr, align 8
  store ptr %0, ptr %3, align 8, !tbaa !3
  store ptr %1, ptr %4, align 8, !tbaa !88
  %5 = load ptr, ptr %3, align 8, !tbaa !3
  %6 = getelementptr inbounds nuw %struct.Inta_Man_t_, ptr %5, i32 0, i32 14
  %7 = load ptr, ptr %6, align 8, !tbaa !91
  %8 = call ptr @Aig_ManConst0(ptr noundef %7)
  %9 = load ptr, ptr %4, align 8, !tbaa !88
  store ptr %8, ptr %9, align 8, !tbaa !89
  ret void
}

; Function Attrs: inlinehint nounwind uwtable
define internal void @Inta_ManAigFill(ptr noundef %0, ptr noundef %1) #4 {
  %3 = alloca ptr, align 8
  %4 = alloca ptr, align 8
  store ptr %0, ptr %3, align 8, !tbaa !3
  store ptr %1, ptr %4, align 8, !tbaa !88
  %5 = load ptr, ptr %3, align 8, !tbaa !3
  %6 = getelementptr inbounds nuw %struct.Inta_Man_t_, ptr %5, i32 0, i32 14
  %7 = load ptr, ptr %6, align 8, !tbaa !91
  %8 = call ptr @Aig_ManConst1(ptr noundef %7)
  %9 = load ptr, ptr %4, align 8, !tbaa !88
  store ptr %8, ptr %9, align 8, !tbaa !89
  ret void
}

; Function Attrs: inlinehint nounwind uwtable
define internal ptr @Inta_ManAigRead(ptr noundef %0, ptr noundef %1) #4 {
  %3 = alloca ptr, align 8
  %4 = alloca ptr, align 8
  store ptr %0, ptr %3, align 8, !tbaa !3
  store ptr %1, ptr %4, align 8, !tbaa !32
  %5 = load ptr, ptr %3, align 8, !tbaa !3
  %6 = getelementptr inbounds nuw %struct.Inta_Man_t_, ptr %5, i32 0, i32 16
  %7 = load ptr, ptr %6, align 8, !tbaa !58
  %8 = load ptr, ptr %4, align 8, !tbaa !32
  %9 = getelementptr inbounds nuw %struct.Sto_Cls_t_, ptr %8, i32 0, i32 3
  %10 = load i32, ptr %9, align 8, !tbaa !59
  %11 = sext i32 %10 to i64
  %12 = getelementptr inbounds ptr, ptr %7, i64 %11
  ret ptr %12
}

; Function Attrs: nounwind uwtable
define void @Inta_ManPrepareInter(ptr noundef %0) #0 {
  %2 = alloca ptr, align 8
  %3 = alloca ptr, align 8
  %4 = alloca i32, align 4
  %5 = alloca i32, align 4
  %6 = alloca i32, align 4
  store ptr %0, ptr %2, align 8, !tbaa !3
  call void @llvm.lifetime.start.p0(i64 8, ptr %3) #10
  call void @llvm.lifetime.start.p0(i64 4, ptr %4) #10
  call void @llvm.lifetime.start.p0(i64 4, ptr %5) #10
  call void @llvm.lifetime.start.p0(i64 4, ptr %6) #10
  %7 = load ptr, ptr %2, align 8, !tbaa !3
  %8 = getelementptr inbounds nuw %struct.Inta_Man_t_, ptr %7, i32 0, i32 0
  %9 = load ptr, ptr %8, align 8, !tbaa !28
  %10 = getelementptr inbounds nuw %struct.Sto_Man_t_, ptr %9, i32 0, i32 4
  %11 = load ptr, ptr %10, align 8, !tbaa !29
  store ptr %11, ptr %3, align 8, !tbaa !32
  br label %12

12:                                               ; preds = %100, %1
  %13 = load ptr, ptr %3, align 8, !tbaa !32
  %14 = icmp ne ptr %13, null
  br i1 %14, label %15, label %22

15:                                               ; preds = %12
  %16 = load ptr, ptr %3, align 8, !tbaa !32
  %17 = getelementptr inbounds nuw %struct.Sto_Cls_t_, ptr %16, i32 0, i32 4
  %18 = load i32, ptr %17, align 4
  %19 = lshr i32 %18, 1
  %20 = and i32 %19, 1
  %21 = icmp ne i32 %20, 0
  br label %22

22:                                               ; preds = %15, %12
  %23 = phi i1 [ false, %12 ], [ %21, %15 ]
  br i1 %23, label %24, label %104

24:                                               ; preds = %22
  %25 = load ptr, ptr %3, align 8, !tbaa !32
  %26 = getelementptr inbounds nuw %struct.Sto_Cls_t_, ptr %25, i32 0, i32 4
  %27 = load i32, ptr %26, align 4
  %28 = and i32 %27, 1
  %29 = icmp ne i32 %28, 0
  br i1 %29, label %35, label %30

30:                                               ; preds = %24
  %31 = load ptr, ptr %2, align 8, !tbaa !3
  %32 = load ptr, ptr %2, align 8, !tbaa !3
  %33 = load ptr, ptr %3, align 8, !tbaa !32
  %34 = call ptr @Inta_ManAigRead(ptr noundef %32, ptr noundef %33)
  call void @Inta_ManAigFill(ptr noundef %31, ptr noundef %34)
  br label %100

35:                                               ; preds = %24
  %36 = load ptr, ptr %2, align 8, !tbaa !3
  %37 = load ptr, ptr %2, align 8, !tbaa !3
  %38 = load ptr, ptr %3, align 8, !tbaa !32
  %39 = call ptr @Inta_ManAigRead(ptr noundef %37, ptr noundef %38)
  call void @Inta_ManAigClear(ptr noundef %36, ptr noundef %39)
  store i32 0, ptr %6, align 4, !tbaa !22
  br label %40

40:                                               ; preds = %96, %35
  %41 = load i32, ptr %6, align 4, !tbaa !22
  %42 = load ptr, ptr %3, align 8, !tbaa !32
  %43 = getelementptr inbounds nuw %struct.Sto_Cls_t_, ptr %42, i32 0, i32 4
  %44 = load i32, ptr %43, align 4
  %45 = lshr i32 %44, 3
  %46 = and i32 %45, 16777215
  %47 = icmp slt i32 %41, %46
  br i1 %47, label %48, label %99

48:                                               ; preds = %40
  %49 = load ptr, ptr %3, align 8, !tbaa !32
  %50 = getelementptr inbounds nuw %struct.Sto_Cls_t_, ptr %49, i32 0, i32 5
  %51 = load i32, ptr %6, align 4, !tbaa !22
  %52 = sext i32 %51 to i64
  %53 = getelementptr inbounds [0 x i32], ptr %50, i64 0, i64 %52
  %54 = load i32, ptr %53, align 4, !tbaa !22
  %55 = call i32 @lit_var(i32 noundef %54)
  store i32 %55, ptr %4, align 4, !tbaa !22
  %56 = load ptr, ptr %2, align 8, !tbaa !3
  %57 = getelementptr inbounds nuw %struct.Inta_Man_t_, ptr %56, i32 0, i32 15
  %58 = load ptr, ptr %57, align 8, !tbaa !33
  %59 = load i32, ptr %4, align 4, !tbaa !22
  %60 = sext i32 %59 to i64
  %61 = getelementptr inbounds i32, ptr %58, i64 %60
  %62 = load i32, ptr %61, align 4, !tbaa !22
  %63 = icmp slt i32 %62, 0
  br i1 %63, label %64, label %95

64:                                               ; preds = %48
  %65 = load ptr, ptr %2, align 8, !tbaa !3
  %66 = getelementptr inbounds nuw %struct.Inta_Man_t_, ptr %65, i32 0, i32 15
  %67 = load ptr, ptr %66, align 8, !tbaa !33
  %68 = load i32, ptr %4, align 4, !tbaa !22
  %69 = sext i32 %68 to i64
  %70 = getelementptr inbounds i32, ptr %67, i64 %69
  %71 = load i32, ptr %70, align 4, !tbaa !22
  %72 = sub nsw i32 0, %71
  %73 = sub nsw i32 %72, 1
  store i32 %73, ptr %5, align 4, !tbaa !22
  %74 = load ptr, ptr %3, align 8, !tbaa !32
  %75 = getelementptr inbounds nuw %struct.Sto_Cls_t_, ptr %74, i32 0, i32 5
  %76 = load i32, ptr %6, align 4, !tbaa !22
  %77 = sext i32 %76 to i64
  %78 = getelementptr inbounds [0 x i32], ptr %75, i64 0, i64 %77
  %79 = load i32, ptr %78, align 4, !tbaa !22
  %80 = call i32 @lit_sign(i32 noundef %79)
  %81 = icmp ne i32 %80, 0
  br i1 %81, label %82, label %88

82:                                               ; preds = %64
  %83 = load ptr, ptr %2, align 8, !tbaa !3
  %84 = load ptr, ptr %2, align 8, !tbaa !3
  %85 = load ptr, ptr %3, align 8, !tbaa !32
  %86 = call ptr @Inta_ManAigRead(ptr noundef %84, ptr noundef %85)
  %87 = load i32, ptr %5, align 4, !tbaa !22
  call void @Inta_ManAigOrNotVar(ptr noundef %83, ptr noundef %86, i32 noundef %87)
  br label %94

88:                                               ; preds = %64
  %89 = load ptr, ptr %2, align 8, !tbaa !3
  %90 = load ptr, ptr %2, align 8, !tbaa !3
  %91 = load ptr, ptr %3, align 8, !tbaa !32
  %92 = call ptr @Inta_ManAigRead(ptr noundef %90, ptr noundef %91)
  %93 = load i32, ptr %5, align 4, !tbaa !22
  call void @Inta_ManAigOrVar(ptr noundef %89, ptr noundef %92, i32 noundef %93)
  br label %94

94:                                               ; preds = %88, %82
  br label %95

95:                                               ; preds = %94, %48
  br label %96

96:                                               ; preds = %95
  %97 = load i32, ptr %6, align 4, !tbaa !22
  %98 = add nsw i32 %97, 1
  store i32 %98, ptr %6, align 4, !tbaa !22
  br label %40, !llvm.loop !104

99:                                               ; preds = %40
  br label %100

100:                                              ; preds = %99, %30
  %101 = load ptr, ptr %3, align 8, !tbaa !32
  %102 = getelementptr inbounds nuw %struct.Sto_Cls_t_, ptr %101, i32 0, i32 0
  %103 = load ptr, ptr %102, align 8, !tbaa !36
  store ptr %103, ptr %3, align 8, !tbaa !32
  br label %12, !llvm.loop !105

104:                                              ; preds = %22
  call void @llvm.lifetime.end.p0(i64 4, ptr %6) #10
  call void @llvm.lifetime.end.p0(i64 4, ptr %5) #10
  call void @llvm.lifetime.end.p0(i64 4, ptr %4) #10
  call void @llvm.lifetime.end.p0(i64 8, ptr %3) #10
  ret void
}