; Function Attrs: nounwind uwtable
define void @Inta_ManPrepareInter(ptr noundef readonly captures(none) %0) local_unnamed_addr #5 {
  %2 = load ptr, ptr %0, align 8, !tbaa !23
  %3 = getelementptr inbounds nuw i8, ptr %2, i64 16
  %.02945 = load ptr, ptr %3, align 8, !tbaa !24
  %.not46 = icmp eq ptr %.02945, null
  br i1 %.not46, label %.critedge, label %.lr.ph48

.lr.ph48:                                         ; preds = %1
  %4 = getelementptr i8, ptr %0, i64 104
  %5 = getelementptr i8, ptr %0, i64 88
  %6 = getelementptr inbounds nuw i8, ptr %0, i64 96
  br label %7

7:                                                ; preds = %.lr.ph48, %.loopexit
  %.02947 = phi ptr [ %.02945, %.lr.ph48 ], [ %.029, %.loopexit ]
  %8 = getelementptr inbounds nuw i8, ptr %.02947, i64 28
  %9 = load i32, ptr %8, align 4
  %10 = and i32 %9, 2
  %.not31 = icmp eq i32 %10, 0
  br i1 %.not31, label %.critedge, label %11

11:                                               ; preds = %7
  %12 = and i32 %9, 1
  %.not32 = icmp eq i32 %12, 0
  %.val38 = load ptr, ptr %4, align 8, !tbaa !50
  %13 = getelementptr i8, ptr %.02947, i64 24
  %.029.val39 = load i32, ptr %13, align 8, !tbaa !51
  %14 = sext i32 %.029.val39 to i64
  %15 = getelementptr inbounds ptr, ptr %.val38, i64 %14
  %.val40 = load ptr, ptr %5, align 8, !tbaa !75
  %16 = getelementptr i8, ptr %.val40, i64 48
  %.val40.val = load ptr, ptr %16, align 8, !tbaa !97
  br i1 %.not32, label %17, label %18

17:                                               ; preds = %11
  store ptr %.val40.val, ptr %15, align 8, !tbaa !72
  br label %.loopexit

18:                                               ; preds = %11
  %19 = ptrtoint ptr %.val40.val to i64
  %20 = xor i64 %19, 1
  %21 = inttoptr i64 %20 to ptr
  store ptr %21, ptr %15, align 8, !tbaa !72
  %22 = load i32, ptr %8, align 4
  %23 = and i32 %22, 134217720
  %.not50 = icmp eq i32 %23, 0
  br i1 %.not50, label %.loopexit, label %.lr.ph

.lr.ph:                                           ; preds = %18
  %24 = getelementptr inbounds nuw i8, ptr %.02947, i64 32
  br label %25

25:                                               ; preds = %.lr.ph, %44
  %indvars.iv = phi i64 [ 0, %.lr.ph ], [ %indvars.iv.next, %44 ]
  %26 = getelementptr inbounds nuw [0 x i32], ptr %24, i64 0, i64 %indvars.iv
  %27 = load i32, ptr %26, align 4, !tbaa !29
  %28 = ashr i32 %27, 1
  %29 = load ptr, ptr %6, align 8, !tbaa !28
  %30 = sext i32 %28 to i64
  %31 = getelementptr inbounds i32, ptr %29, i64 %30
  %32 = load i32, ptr %31, align 4, !tbaa !29
  %33 = icmp slt i32 %32, 0
  br i1 %33, label %.sink.split, label %44

.sink.split:                                      ; preds = %25
  %34 = xor i32 %32, -1
  %35 = and i32 %27, 1
  %.not33 = icmp eq i32 %35, 0
  %.val = load ptr, ptr %4, align 8, !tbaa !50
  %.029.val = load i32, ptr %13, align 8, !tbaa !51
  %36 = sext i32 %.029.val to i64
  %37 = getelementptr inbounds ptr, ptr %.val, i64 %36
  %.val43 = load ptr, ptr %5, align 8, !tbaa !75
  %38 = load ptr, ptr %37, align 8, !tbaa !72
  %39 = tail call ptr @Aig_IthVar(ptr noundef %.val43, i32 noundef range(i32 0, 2147483647) %34) #20
  %40 = ptrtoint ptr %39 to i64
  %41 = xor i64 %40, 1
  %42 = inttoptr i64 %41 to ptr
  %.sink52 = select i1 %.not33, ptr %39, ptr %42
  %43 = tail call ptr @Aig_Or(ptr noundef %.val43, ptr noundef %38, ptr noundef %.sink52) #20
  store ptr %43, ptr %37, align 8, !tbaa !72
  br label %44

44:                                               ; preds = %.sink.split, %25
  %indvars.iv.next = add nuw nsw i64 %indvars.iv, 1
  %45 = load i32, ptr %8, align 4
  %46 = lshr i32 %45, 3
  %47 = and i32 %46, 16777215
  %48 = zext nneg i32 %47 to i64
  %49 = icmp samesign ult i64 %indvars.iv.next, %48
  br i1 %49, label %25, label %.loopexit, !llvm.loop !104

.loopexit:                                        ; preds = %44, %18, %17
  %.029 = load ptr, ptr %.02947, align 8, !tbaa !24
  %.not = icmp eq ptr %.029, null
  br i1 %.not, label %.critedge, label %7, !llvm.loop !105

.critedge:                                        ; preds = %7, %.loopexit, %1
  ret void
}